target datalayout = "e-m:e-p270:32:32-p271:32:32-p272:64:64-i64:64-i128:128-f80:128-n8:16:32:64-S128"
target triple = "x86_64-pc-linux-gnu"

%struct._php_stream_bucket_brigade = type { ptr, ptr }
%struct._php_stream_bucket = type { ptr, ptr, ptr, ptr, i64, i8, i8, i32 }
%struct._php_stream_filter = type { ptr, %struct._zval_struct, ptr, ptr, i32, ptr, %struct._php_stream_bucket_brigade, ptr }
%struct._zval_struct = type { %union._zend_value, %union.anon, %union.anon.3 }
%union._zend_value = type { i64 }
%union.anon = type { i32 }
%union.anon.3 = type { i32 }
%struct._php_stream = type { ptr, ptr, %struct._php_stream_filter_chain, %struct._php_stream_filter_chain, ptr, ptr, %struct._zval_struct, i16, [16 x i8], i32, ptr, ptr, ptr, ptr, i64, ptr, i64, i64, i64, i64, ptr }
%struct._php_stream_filter_chain = type { ptr, ptr, ptr }

; Function Attrs: nounwind uwtable
define internal i32 @strfilter_convert_filter(ptr noundef %0, ptr noundef %1, ptr noundef %2, ptr noundef %3, ptr noundef %4, i32 noundef %5) #0 {
  %7 = alloca i32, align 4
  %8 = alloca ptr, align 8
  %9 = alloca ptr, align 8
  %10 = alloca ptr, align 8
  %11 = alloca ptr, align 8
  %12 = alloca ptr, align 8
  %13 = alloca i32, align 4
  %14 = alloca ptr, align 8
  %15 = alloca i64, align 8
  %16 = alloca ptr, align 8
  store ptr %0, ptr %8, align 8
  store ptr %1, ptr %9, align 8
  store ptr %2, ptr %10, align 8
  store ptr %3, ptr %11, align 8
  store ptr %4, ptr %12, align 8
  store i32 %5, ptr %13, align 4
  store ptr null, ptr %14, align 8
  store i64 0, ptr %15, align 8
  %17 = load ptr, ptr %9, align 8
  %18 = getelementptr inbounds %struct._php_stream_filter, ptr %17, i32 0, i32 1
  %19 = getelementptr inbounds %struct._zval_struct, ptr %18, i32 0, i32 0
  %20 = load ptr, ptr %19, align 8
  store ptr %20, ptr %16, align 8
  br label %21

21:                                               ; preds = %49, %6
  %22 = load ptr, ptr %10, align 8
  %23 = getelementptr inbounds %struct._php_stream_bucket_brigade, ptr %22, i32 0, i32 0
  %24 = load ptr, ptr %23, align 8
  %25 = icmp ne ptr %24, null
  br i1 %25, label %26, label %51

26:                                               ; preds = %21
  %27 = load ptr, ptr %10, align 8
  %28 = getelementptr inbounds %struct._php_stream_bucket_brigade, ptr %27, i32 0, i32 0
  %29 = load ptr, ptr %28, align 8
  store ptr %29, ptr %14, align 8
  %30 = load ptr, ptr %14, align 8
  call void @php_stream_bucket_unlink(ptr noundef %30)
  %31 = load ptr, ptr %16, align 8
  %32 = load ptr, ptr %8, align 8
  %33 = load ptr, ptr %9, align 8
  %34 = load ptr, ptr %11, align 8
  %35 = load ptr, ptr %14, align 8
  %36 = getelementptr inbounds %struct._php_stream_bucket, ptr %35, i32 0, i32 3
  %37 = load ptr, ptr %36, align 8
  %38 = load ptr, ptr %14, align 8
  %39 = getelementptr inbounds %struct._php_stream_bucket, ptr %38, i32 0, i32 4
  %40 = load i64, ptr %39, align 8
  %41 = load ptr, ptr %8, align 8
  %42 = getelementptr inbounds %struct._php_stream, ptr %41, i32 0, i32 7
  %43 = load i16, ptr %42, align 8
  %44 = and i16 %43, 1
  %45 = zext i16 %44 to i32
  %46 = call i32 @strfilter_convert_append_bucket(ptr noundef %31, ptr noundef %32, ptr noundef %33, ptr noundef %34, ptr noundef %37, i64 noundef %40, ptr noundef %15, i32 noundef %45)
  %47 = icmp ne i32 %46, 0
  br i1 %47, label %48, label %49

48:                                               ; preds = %26
  br label %75

49:                                               ; preds = %26
  %50 = load ptr, ptr %14, align 8
  call void @php_stream_bucket_delref(ptr noundef %50)
  br label %21

51:                                               ; preds = %21
  %52 = load i32, ptr %13, align 4
  %53 = icmp ne i32 %52, 0
  br i1 %53, label %54, label %68

54:                                               ; preds = %51
  %55 = load ptr, ptr %16, align 8
  %56 = load ptr, ptr %8, align 8
  %57 = load ptr, ptr %9, align 8
  %58 = load ptr, ptr %11, align 8
  %59 = load ptr, ptr %8, align 8
  %60 = getelementptr inbounds %struct._php_stream, ptr %59, i32 0, i32 7
  %61 = load i16, ptr %60, align 8
  %62 = and i16 %61, 1
  %63 = zext i16 %62 to i32
  %64 = call i32 @strfilter_convert_append_bucket(ptr noundef %55, ptr noundef %56, ptr noundef %57, ptr noundef %58, ptr noundef null, i64 noundef 0, ptr noundef %15, i32 noundef %63)
  %65 = icmp ne i32 %64, 0
  br i1 %65, label %66, label %67

66:                                               ; preds = %54
  br label %75

67:                                               ; preds = %54
  br label %68

68:                                               ; preds = %67, %51
  %69 = load ptr, ptr %12, align 8
  %70 = icmp ne ptr %69, null
  br i1 %70, label %71, label %74

71:                                               ; preds = %68
  %72 = load i64, ptr %15, align 8
  %73 = load ptr, ptr %12, align 8
  store i64 %72, ptr %73, align 8
  br label %74

74:                                               ; preds = %71, %68
  store i32 2, ptr %7, align 4
  br label %81

75:                                               ; preds = %66, %48
  %76 = load ptr, ptr %14, align 8
  %77 = icmp ne ptr %76, null
  br i1 %77, label %78, label %80

78:                                               ; preds = %75
  %79 = load ptr, ptr %14, align 8
  call void @php_stream_bucket_delref(ptr noundef %79)
  br label %80

80:                                               ; preds = %78, %75
  store i32 0, ptr %7, align 4
  br label %81

81:                                               ; preds = %80, %74
  %82 = load i32, ptr %7, align 4
  ret i32 %82
}