; Function Attrs: nounwind uwtable
define internal noundef i32 @strfilter_convert_filter(ptr noundef %0, ptr nocapture noundef readonly %1, ptr nocapture noundef readonly %2, ptr noundef %3, ptr noundef writeonly %4, i32 noundef %5) #0 {
  %7 = alloca i64, align 8
  store i64 0, ptr %7, align 8
  %8 = getelementptr inbounds i8, ptr %1, i64 8
  %9 = load ptr, ptr %8, align 8
  %10 = load ptr, ptr %2, align 8
  %.not35 = icmp eq ptr %10, null
  br i1 %.not35, label %._crit_edge, label %.lr.ph

.lr.ph:                                           ; preds = %6
  %11 = getelementptr inbounds i8, ptr %0, i64 96
  br label %12

12:                                               ; preds = %.lr.ph, %22
  %13 = phi ptr [ %10, %.lr.ph ], [ %23, %22 ]
  tail call void @php_stream_bucket_unlink(ptr noundef nonnull %13) #18
  %14 = getelementptr inbounds i8, ptr %13, i64 24
  %15 = load ptr, ptr %14, align 8
  %16 = getelementptr inbounds i8, ptr %13, i64 32
  %17 = load i64, ptr %16, align 8
  %18 = load i16, ptr %11, align 8
  %19 = and i16 %18, 1
  %20 = zext nneg i16 %19 to i32
  %21 = call fastcc i32 @strfilter_convert_append_bucket(ptr noundef %9, ptr noundef %0, ptr noundef %3, ptr noundef %15, i64 noundef %17, ptr noundef nonnull %7, i32 noundef %20)
  %.not28 = icmp eq i32 %21, 0
  br i1 %.not28, label %22, label %.thread

22:                                               ; preds = %12
  tail call void @php_stream_bucket_delref(ptr noundef nonnull %13) #18
  %23 = load ptr, ptr %2, align 8
  %.not = icmp eq ptr %23, null
  br i1 %.not, label %._crit_edge, label %12

._crit_edge:                                      ; preds = %22, %6
  %.022.lcssa = phi ptr [ null, %6 ], [ %13, %22 ]
  %.not25 = icmp eq i32 %5, 0
  br i1 %.not25, label %30, label %24

24:                                               ; preds = %._crit_edge
  %25 = getelementptr inbounds i8, ptr %0, i64 96
  %26 = load i16, ptr %25, align 8
  %27 = and i16 %26, 1
  %28 = zext nneg i16 %27 to i32
  %29 = call fastcc i32 @strfilter_convert_append_bucket(ptr noundef %9, ptr noundef %0, ptr noundef %3, ptr noundef null, i64 noundef 0, ptr noundef nonnull %7, i32 noundef %28)
  %.not26 = icmp eq i32 %29, 0
  br i1 %.not26, label %30, label %33

30:                                               ; preds = %24, %._crit_edge
  %.not27 = icmp eq ptr %4, null
  br i1 %.not27, label %34, label %31

31:                                               ; preds = %30
  %32 = load i64, ptr %7, align 8
  store i64 %32, ptr %4, align 8
  br label %34

33:                                               ; preds = %24
  %.not29 = icmp eq ptr %.022.lcssa, null
  br i1 %.not29, label %34, label %.thread

.thread:                                          ; preds = %12, %33
  %.132 = phi ptr [ %.022.lcssa, %33 ], [ %13, %12 ]
  tail call void @php_stream_bucket_delref(ptr noundef nonnull %.132) #18
  br label %34

34:                                               ; preds = %33, %.thread, %30, %31
  %.0 = phi i32 [ 2, %31 ], [ 2, %30 ], [ 0, %.thread ], [ 0, %33 ]
  ret i32 %.0
}